; Function Attrs: nounwind uwtable
define hidden void @zif_xmlwriter_write_element_ns(ptr noundef %0, ptr nocapture noundef writeonly %1) #0 {
  %3 = alloca ptr, align 8
  %4 = alloca ptr, align 8
  %5 = alloca ptr, align 8
  %6 = alloca ptr, align 8
  %7 = alloca i64, align 8
  %8 = alloca i64, align 8
  %9 = alloca i64, align 8
  %10 = alloca i64, align 8
  %11 = alloca ptr, align 8
  store ptr null, ptr %6, align 8
  %12 = getelementptr inbounds i8, ptr %0, i64 32
  %13 = getelementptr inbounds i8, ptr %0, i64 44
  %14 = load i32, ptr %13, align 4
  %15 = getelementptr inbounds i8, ptr %0, i64 40
  %16 = load i8, ptr %15, align 8
  %17 = icmp eq i8 %16, 8
  %18 = select i1 %17, ptr %12, ptr null
  %19 = load ptr, ptr @xmlwriter_class_entry_ce, align 8
  %20 = call i32 (i32, ptr, ptr, ...) @zend_parse_method_parameters(i32 noundef %14, ptr noundef %18, ptr noundef nonnull @.str.12, ptr noundef nonnull %11, ptr noundef %19, ptr noundef nonnull %4, ptr noundef nonnull %8, ptr noundef nonnull %3, ptr noundef nonnull %7, ptr noundef nonnull %5, ptr noundef nonnull %9, ptr noundef nonnull %6, ptr noundef nonnull %10) #11
  %21 = icmp eq i32 %20, -1
  br i1 %21, label %22, label %25

22:                                               ; preds = %2
  %23 = load ptr, ptr getelementptr inbounds (%struct._zend_executor_globals, ptr @executor_globals, i64 0, i32 50), align 8
  %24 = icmp ne ptr %23, null
  call void @llvm.assume(i1 %24)
  br label %57

25:                                               ; preds = %2
  %26 = load ptr, ptr %11, align 8
  %27 = load ptr, ptr %26, align 8
  %28 = getelementptr inbounds i8, ptr %27, i64 -16
  %29 = load ptr, ptr %28, align 8
  %.not = icmp eq ptr %29, null
  br i1 %.not, label %30, label %33

30:                                               ; preds = %25
  call void (ptr, ptr, ...) @zend_throw_error(ptr noundef null, ptr noundef nonnull @.str.4) #11
  %31 = load ptr, ptr getelementptr inbounds (%struct._zend_executor_globals, ptr @executor_globals, i64 0, i32 50), align 8
  %32 = icmp ne ptr %31, null
  call void @llvm.assume(i1 %32)
  br label %57

33:                                               ; preds = %25
  %34 = load ptr, ptr %3, align 8
  %35 = call i32 @xmlValidateName(ptr noundef %34, i32 noundef 0) #11
  %.not14 = icmp eq i32 %35, 0
  br i1 %.not14, label %40, label %36

36:                                               ; preds = %33
  %37 = load ptr, ptr %3, align 8
  call void (i32, ptr, ...) @zend_argument_value_error(i32 noundef 3, ptr noundef nonnull @.str.7, ptr noundef nonnull @.str.10, ptr noundef %37) #11
  %38 = load ptr, ptr getelementptr inbounds (%struct._zend_executor_globals, ptr @executor_globals, i64 0, i32 50), align 8
  %39 = icmp ne ptr %38, null
  call void @llvm.assume(i1 %39)
  br label %57

40:                                               ; preds = %33
  %41 = load ptr, ptr %6, align 8
  %.not15 = icmp eq ptr %41, null
  %42 = load ptr, ptr %4, align 8
  %43 = load ptr, ptr %3, align 8
  %44 = load ptr, ptr %5, align 8
  br i1 %.not15, label %45, label %52

45:                                               ; preds = %40
  %46 = call i32 @xmlTextWriterStartElementNS(ptr noundef nonnull %29, ptr noundef %42, ptr noundef %43, ptr noundef %44) #11
  %47 = icmp eq i32 %46, -1
  br i1 %47, label %48, label %50

48:                                               ; preds = %45
  %49 = getelementptr inbounds i8, ptr %1, i64 8
  store i32 2, ptr %49, align 8
  br label %57

50:                                               ; preds = %45
  %51 = call i32 @xmlTextWriterEndElement(ptr noundef nonnull %29) #11
  br label %54

52:                                               ; preds = %40
  %53 = call i32 @xmlTextWriterWriteElementNS(ptr noundef nonnull %29, ptr noundef %42, ptr noundef %43, ptr noundef %44, ptr noundef nonnull %41) #11
  br label %54

54:                                               ; preds = %52, %50
  %.0 = phi i32 [ %53, %52 ], [ %51, %50 ]
  %.not16 = icmp eq i32 %.0, -1
  %55 = select i1 %.not16, i32 2, i32 3
  %56 = getelementptr inbounds i8, ptr %1, i64 8
  store i32 %55, ptr %56, align 8
  br label %57

57:                                               ; preds = %54, %48, %36, %30, %22
  ret void
}